Certificate:
    Data:
        Version: 3 (0x2)
        Serial Number: 1 (0x1)
        Signature Algorithm: sha256WithRSAEncryption
        Issuer: CN=devcert
        Validity
            Not Before: May 11 14:17:13 2020 GMT
            Not After : Aug 14 14:17:13 2022 GMT
        Subject: CN=localhost
        Subject Public Key Info:
            Public Key Algorithm: rsaEncryption
                RSA Public-Key: (2048 bit)
                Modulus:
                    00:dd:24:f8:4d:6c:e0:3f:4d:fd:1c:9b:b8:0e:6a:
                    e3:40:f1:36:1c:77:2e:11:10:d5:e2:71:e4:07:40:
                    4b:61:53:74:a4:18:85:cd:e9:be:d9:39:be:f5:08:
                    d4:c6:27:27:ac:5a:ec:9e:3e:72:ba:1a:08:97:43:
                    9a:79:a8:e1:68:ed:a0:c6:05:ac:3c:5d:6e:4f:a5:
                    bb:45:0f:15:09:ef:57:9b:ef:75:d7:a0:84:ee:70:
                    23:81:7d:dc:e0:4b:cd:d4:d8:cf:24:8a:bf:d0:39:
                    f5:0b:77:f9:e3:62:19:fd:29:59:77:3c:be:5e:e5:
                    f3:b4:04:05:ab:d1:51:3d:d7:d5:ed:9c:4a:11:4a:
                    71:b9:a7:52:67:87:bf:f5:ce:cc:70:ea:22:90:f0:
                    89:e9:1c:6c:4d:a6:0f:90:d1:74:c2:6d:a1:f4:39:
                    c0:40:72:a6:a1:ab:1d:e6:a7:a1:2a:10:ea:c4:05:
                    46:3b:a9:c7:01:a0:fc:de:84:e5:6e:37:01:a6:fc:
                    9c:2b:7b:45:83:4b:49:fb:0d:24:60:65:df:01:19:
                    82:43:3a:3b:7f:7a:7b:f8:85:c5:22:f2:07:6e:09:
                    4d:5d:b6:7d:88:3e:b7:85:34:45:1b:09:0e:dd:37:
                    0c:f1:81:38:f0:fb:10:ce:9b:7c:ff:70:4e:2b:f8:
                    69:7d
                Exponent: 65537 (0x10001)
        X509v3 extensions:
            X509v3 Basic Constraints: critical
                CA:FALSE
            X509v3 Subject Key Identifier: 
                95:EC:63:0C:56:F6:99:D1:FB:0F:85:79:29:75:FD:F7:B6:2C:0B:BC
            X509v3 Authority Key Identifier: 
                keyid:A1:41:BB:24:42:F1:B1:33:95:8F:42:A2:9A:77:94:F1:92:D4:AA:D5
                DirName:/CN=devcert
                serial:45:1B:C2:9A:6A:7F:53:C7:06:A2:19:C4:87:F9:15:2B:23:E0:CC:A7

            X509v3 Key Usage: critical
                Digital Signature, Key Encipherment
            X509v3 Extended Key Usage: 
                TLS Web Server Authentication
            X509v3 Subject Alternative Name: 
                DNS:localhost, DNS:*.localhost
    Signature Algorithm: sha256WithRSAEncryption
         c1:b3:ea:d6:b0:7a:cc:e4:47:46:01:b0:b0:0d:2f:b1:29:43:
         0a:29:6f:e9:0f:79:01:20:a8:be:02:39:5d:69:ae:38:cf:f0:
         58:03:f3:2b:fe:34:79:b4:b8:da:31:7a:12:61:e5:01:3d:bc:
         e4:bc:0c:cc:3e:3a:b1:21:89:82:58:16:ff:e3:db:d9:22:f3:
         28:86:9c:54:fb:48:07:83:78:34:03:37:ed:a5:d7:5b:12:21:
         5d:fa:a9:6f:89:4c:cb:f5:aa:ea:96:9e:a7:5a:80:2d:94:ba:
         22:fb:6c:97:4a:f3:4b:ed:65:db:43:38:45:1c:45:54:70:34:
         68:1b:e0:77:8d:e0:71:77:e1:7f:70:80:e8:3d:a2:33:ca:5d:
         22:cc:43:21:79:92:40:d5:80:14:f9:19:d3:c9:c7:85:8f:8f:
         76:b3:96:0b:44:49:5c:ab:b5:70:5c:ed:b9:22:25:b1:7a:b8:
         2b:1c:9f:bf:b5:67:83:71:80:6e:37:d0:c5:ab:28:40:9d:68:
         67:ab:17:15:8d:1e:02:7c:49:0a:c8:af:e8:f4:67:4d:d4:63:
         f1:f6:8e:b0:8b:dd:a8:2a:3f:ae:b0:50:3a:25:34:6c:db:51:
         27:ba:f4:10:32:23:4d:26:da:fb:0f:8c:a1:9b:5d:a7:29:15:
         33:82:66:16
-----BEGIN CERTIFICATE-----
MIIDaTCCAlGgAwIBAgIBATANBgkqhkiG9w0BAQsFADASMRAwDgYDVQQDDAdkZXZj
ZXJ0MB4XDTIwMDUxMTE0MTcxM1oXDTIyMDgxNDE0MTcxM1owFDESMBAGA1UEAwwJ
bG9jYWxob3N0MIIBIjANBgkqhkiG9w0BAQEFAAOCAQ8AMIIBCgKCAQEA3ST4TWzg
P039HJu4DmrjQPE2HHcuERDV4nHkB0BLYVN0pBiFzem+2Tm+9QjUxicnrFrsnj5y
uhoIl0OaeajhaO2gxgWsPF1uT6W7RQ8VCe9Xm+9116CE7nAjgX3c4EvN1NjPJIq/
0Dn1C3f542IZ/SlZdzy+XuXztAQFq9FRPdfV7ZxKEUpxuadSZ4e/9c7McOoikPCJ
6RxsTaYPkNF0wm2h9DnAQHKmoasd5qehKhDqxAVGO6nHAaD83oTlbjcBpvycK3tF
g0tJ+w0kYGXfARmCQzo7f3p7+IXFIvIHbglNXbZ9iD63hTRFGwkO3TcM8YE48PsQ
zpt8/3BOK/hpfQIDAQABo4HHMIHEMAwGA1UdEwEB/wQCMAAwHQYDVR0OBBYEFJXs
YwxW9pnR+w+FeSl1/fe2LAu8ME0GA1UdIwRGMESAFKFBuyRC8bEzlY9Copp3lPGS
1KrVoRakFDASMRAwDgYDVQQDDAdkZXZjZXJ0ghRFG8Kaan9TxwaiGcSH+RUrI+DM
pzAOBgNVHQ8BAf8EBAMCBaAwEwYDVR0lBAwwCgYIKwYBBQUHAwEwIQYDVR0RBBow
GIIJbG9jYWxob3N0ggsqLmxvY2FsaG9zdDANBgkqhkiG9w0BAQsFAAOCAQEAwbPq
1rB6zORHRgGwsA0vsSlDCilv6Q95ASCovgI5XWmuOM/wWAPzK/40ebS42jF6EmHl
AT285LwMzD46sSGJglgW/+Pb2SLzKIacVPtIB4N4NAM37aXXWxIhXfqpb4lMy/Wq
6paep1qALZS6Ivtsl0rzS+1l20M4RRxFVHA0aBvgd43gcXfhf3CA6D2iM8pdIsxD
IXmSQNWAFPkZ08nHhY+PdrOWC0RJXKu1cFztuSIlsXq4Kxyfv7Vng3GAbjfQxaso
QJ1oZ6sXFY0eAnxJCsiv6PRnTdRj8faOsIvdqCo/rrBQOiU0bNtRJ7r0EDIjTSba
+w+MoZtdpykVM4JmFg==
-----END CERTIFICATE-----
