Certificate:
    Data:
        Version: 3 (0x2)
        Serial Number: 1 (0x1)
        Signature Algorithm: sha256WithRSAEncryption
        Issuer: CN=devcert
        Validity
            Not Before: Apr 30 02:34:02 2020 GMT
            Not After : Aug  3 02:34:02 2022 GMT
        Subject: CN=localhost
        Subject Public Key Info:
            Public Key Algorithm: rsaEncryption
                RSA Public-Key: (2048 bit)
                Modulus:
                    00:c5:a9:c9:80:36:99:15:29:c8:04:cc:e5:0f:e7:
                    ed:00:8d:59:2d:37:55:dc:93:84:2a:e6:d9:6d:b6:
                    fa:9c:2d:2d:28:78:b5:f1:98:d2:93:79:ff:4b:fe:
                    5e:06:40:b5:8a:71:5e:b2:cc:82:b4:5e:f4:35:16:
                    cd:38:0d:9b:74:a5:1a:bb:73:60:a4:00:33:c8:a0:
                    d7:12:50:c1:bf:32:a8:a8:99:6a:11:2a:01:76:95:
                    58:da:6a:e4:f5:1a:e9:a7:4d:a7:f0:30:3b:9c:d8:
                    0a:f4:26:4f:90:78:1e:0c:6a:2b:eb:3b:40:db:c5:
                    89:3c:b5:4f:79:a6:f4:5b:a2:0f:7e:4f:bc:32:69:
                    80:fa:2e:d9:4f:56:4a:33:d8:d9:5a:cb:e5:75:4a:
                    e6:ec:8f:90:b1:46:14:05:8a:dd:af:81:27:74:ae:
                    23:b3:98:c8:07:c1:5c:b2:35:54:8a:7d:f1:35:32:
                    d5:5c:cd:bf:93:3a:df:43:93:3e:48:54:a7:48:06:
                    99:75:26:6e:22:2c:75:d1:df:6a:92:07:6e:1b:34:
                    1f:86:4c:24:5c:47:1b:f4:6a:61:1f:e9:83:c0:38:
                    c4:98:9b:11:d6:a2:d2:4c:86:c3:46:7f:eb:2e:fd:
                    bc:16:cf:9a:1b:db:8f:59:d0:94:a5:9c:a9:a7:d9:
                    ce:ad
                Exponent: 65537 (0x10001)
        X509v3 extensions:
            X509v3 Basic Constraints: critical
                CA:FALSE
            X509v3 Subject Key Identifier: 
                A3:2F:5A:4E:B3:CE:31:BC:B6:93:65:84:A2:5F:B5:C9:92:7F:E3:7A
            X509v3 Authority Key Identifier: 
                keyid:F1:67:4A:C2:53:3C:9F:2C:F0:FD:DA:3C:79:A4:8A:DE:26:1C:B2:3A
                DirName:/CN=devcert
                serial:02:78:E1:20:7C:1A:08:BA:9B:69:65:43:3A:D6:9C:14:62:05:40:7A

            X509v3 Key Usage: critical
                Digital Signature, Key Encipherment
            X509v3 Extended Key Usage: 
                TLS Web Server Authentication
            X509v3 Subject Alternative Name: 
                DNS:localhost, DNS:*.localhost
    Signature Algorithm: sha256WithRSAEncryption
         95:bb:6f:f3:a4:2c:2f:43:3c:00:84:50:5c:74:8b:c6:e8:b4:
         68:cf:ed:9c:6a:d1:db:f6:b4:ba:27:1b:c5:3d:b5:b2:8f:79:
         43:de:3f:f5:c2:36:65:4d:2c:02:91:35:bb:ee:99:74:80:37:
         03:aa:b1:32:00:85:55:92:11:a9:11:75:00:fd:1a:32:be:30:
         bc:be:5b:89:1f:df:8c:49:57:d6:14:5c:5c:1f:3b:9a:aa:ef:
         b8:79:28:a7:21:6d:9d:39:4f:13:94:10:de:ce:72:fb:95:4c:
         df:70:c1:af:38:38:85:e0:30:9e:29:04:46:a9:05:76:b2:3d:
         59:dd:7d:ae:71:8d:74:f1:e9:7f:e7:52:7b:bd:15:34:4a:b9:
         59:d2:b5:b4:91:69:07:37:fb:e0:38:c6:4b:6f:9d:02:8f:c4:
         a8:94:56:e8:1d:db:88:13:66:6e:a2:86:5d:51:e4:66:c1:c3:
         19:90:c4:9e:8b:55:ac:2d:84:6c:f2:24:e0:16:f7:11:15:ba:
         24:79:f1:af:70:8f:6f:be:1e:ac:03:c9:c2:fa:e3:3e:ad:fc:
         cf:c9:a1:27:c7:e7:a0:d3:d0:e2:c9:c6:12:88:58:0b:db:f1:
         35:c8:3a:c5:16:bb:e7:aa:a9:41:f4:f8:a2:ff:2a:c9:a6:1e:
         a2:49:59:27
-----BEGIN CERTIFICATE-----
MIIDaTCCAlGgAwIBAgIBATANBgkqhkiG9w0BAQsFADASMRAwDgYDVQQDDAdkZXZj
ZXJ0MB4XDTIwMDQzMDAyMzQwMloXDTIyMDgwMzAyMzQwMlowFDESMBAGA1UEAwwJ
bG9jYWxob3N0MIIBIjANBgkqhkiG9w0BAQEFAAOCAQ8AMIIBCgKCAQEAxanJgDaZ
FSnIBMzlD+ftAI1ZLTdV3JOEKubZbbb6nC0tKHi18ZjSk3n/S/5eBkC1inFessyC
tF70NRbNOA2bdKUau3NgpAAzyKDXElDBvzKoqJlqESoBdpVY2mrk9Rrpp02n8DA7
nNgK9CZPkHgeDGor6ztA28WJPLVPeab0W6IPfk+8MmmA+i7ZT1ZKM9jZWsvldUrm
7I+QsUYUBYrdr4EndK4js5jIB8FcsjVUin3xNTLVXM2/kzrfQ5M+SFSnSAaZdSZu
Iix10d9qkgduGzQfhkwkXEcb9GphH+mDwDjEmJsR1qLSTIbDRn/rLv28Fs+aG9uP
WdCUpZypp9nOrQIDAQABo4HHMIHEMAwGA1UdEwEB/wQCMAAwHQYDVR0OBBYEFKMv
Wk6zzjG8tpNlhKJftcmSf+N6ME0GA1UdIwRGMESAFPFnSsJTPJ8s8P3aPHmkit4m
HLI6oRakFDASMRAwDgYDVQQDDAdkZXZjZXJ0ghQCeOEgfBoIuptpZUM61pwUYgVA
ejAOBgNVHQ8BAf8EBAMCBaAwEwYDVR0lBAwwCgYIKwYBBQUHAwEwIQYDVR0RBBow
GIIJbG9jYWxob3N0ggsqLmxvY2FsaG9zdDANBgkqhkiG9w0BAQsFAAOCAQEAlbtv
86QsL0M8AIRQXHSLxui0aM/tnGrR2/a0uicbxT21so95Q94/9cI2ZU0sApE1u+6Z
dIA3A6qxMgCFVZIRqRF1AP0aMr4wvL5biR/fjElX1hRcXB87mqrvuHkopyFtnTlP
E5QQ3s5y+5VM33DBrzg4heAwnikERqkFdrI9Wd19rnGNdPHpf+dSe70VNEq5WdK1
tJFpBzf74DjGS2+dAo/EqJRW6B3biBNmbqKGXVHkZsHDGZDEnotVrC2EbPIk4Bb3
ERW6JHnxr3CPb74erAPJwvrjPq38z8mhJ8fnoNPQ4snGEohYC9vxNcg6xRa756qp
QfT4ov8qyaYeoklZJw==
-----END CERTIFICATE-----
